; Function Attrs: mustprogress nofree norecurse nounwind willreturn memory(argmem: readwrite) uwtable
define noundef i64 @_ZN7rocksdb18GenericRateLimiter29CalculateRefillPeriodUsLockedEl(ptr nocapture noundef nonnull readonly align 8 dereferenceable(608) %this, i64 noundef %single_burst_bytes) local_unnamed_addr #2 align 2 personality ptr @__gxx_personality_v0 {
entry:
  %rate_bytes_per_sec_ = getelementptr inbounds i8, ptr %this, i64 64
  %0 = load atomic i64, ptr %rate_bytes_per_sec_ monotonic, align 8
  %div = sdiv i64 9223372036854775807, %single_burst_bytes
  %cmp = icmp slt i64 %div, 1000000
  %mul = mul nsw i64 %single_burst_bytes, 1000000
  %spec.select = select i1 %cmp, i64 9223372036854775807, i64 %mul
  %retval.0 = sdiv i64 %spec.select, %0
  ret i64 %retval.0
}